; Function Attrs: mustprogress nounwind uwtable
define hidden noundef range(i64 -9223372036854, 9223372036855) i64 @_ZNK4cvc58internal14WallClockTimer7elapsedEv(ptr noundef nonnull readonly align 8 captures(none) dereferenceable(16) %0) local_unnamed_addr #5 align 2 {
  %2 = getelementptr inbounds nuw i8, ptr %0, i64 8
  %.sroa.0.0.copyload.i.i = load i64, ptr %2, align 8, !tbaa !3
  %.not = icmp eq i64 %.sroa.0.0.copyload.i.i, 0
  br i1 %.not, label %7, label %3

3:                                                ; preds = %1
  %4 = tail call i64 @_ZNSt6chrono3_V212system_clock3nowEv() #28
  %.sroa.0.0.copyload.i2.i = load i64, ptr %0, align 8, !tbaa !3
  %5 = sub nsw i64 %4, %.sroa.0.0.copyload.i2.i
  %6 = sdiv i64 %5, 1000000
  br label %7

7:                                                ; preds = %1, %3
  %.0 = phi i64 [ %6, %3 ], [ 0, %1 ]
  ret i64 %.0
}